target datalayout = "e-m:e-p270:32:32-p271:32:32-p272:64:64-i64:64-i128:128-f80:128-n8:16:32:64-S128"
target triple = "x86_64-pc-linux-gnu"

%struct.decNumber = type { i32, i32, i8, [1 x i8] }

; Function Attrs: mustprogress nounwind uwtable
define ptr @uprv_decNumberGetBCD_77(ptr noundef %0, ptr noundef %1) #2 {
  %3 = alloca ptr, align 8
  %4 = alloca ptr, align 8
  %5 = alloca ptr, align 8
  %6 = alloca ptr, align 8
  store ptr %0, ptr %3, align 8, !tbaa !3
  store ptr %1, ptr %4, align 8, !tbaa !11
  call void @llvm.lifetime.start.p0(i64 8, ptr %5) #8
  %7 = load ptr, ptr %4, align 8, !tbaa !11
  %8 = load ptr, ptr %3, align 8, !tbaa !3
  %9 = getelementptr inbounds nuw %struct.decNumber, ptr %8, i32 0, i32 0
  %10 = load i32, ptr %9, align 4, !tbaa !16
  %11 = sext i32 %10 to i64
  %12 = getelementptr inbounds i8, ptr %7, i64 %11
  %13 = getelementptr inbounds i8, ptr %12, i64 -1
  store ptr %13, ptr %5, align 8, !tbaa !11
  call void @llvm.lifetime.start.p0(i64 8, ptr %6) #8
  %14 = load ptr, ptr %3, align 8, !tbaa !3
  %15 = getelementptr inbounds nuw %struct.decNumber, ptr %14, i32 0, i32 3
  %16 = getelementptr inbounds [1 x i8], ptr %15, i64 0, i64 0
  store ptr %16, ptr %6, align 8, !tbaa !11
  br label %17

17:                                               ; preds = %25, %2
  %18 = load ptr, ptr %5, align 8, !tbaa !11
  %19 = load ptr, ptr %4, align 8, !tbaa !11
  %20 = icmp uge ptr %18, %19
  br i1 %20, label %21, label %30

21:                                               ; preds = %17
  %22 = load ptr, ptr %6, align 8, !tbaa !11
  %23 = load i8, ptr %22, align 1, !tbaa !13
  %24 = load ptr, ptr %5, align 8, !tbaa !11
  store i8 %23, ptr %24, align 1, !tbaa !13
  br label %25

25:                                               ; preds = %21
  %26 = load ptr, ptr %5, align 8, !tbaa !11
  %27 = getelementptr inbounds i8, ptr %26, i32 -1
  store ptr %27, ptr %5, align 8, !tbaa !11
  %28 = load ptr, ptr %6, align 8, !tbaa !11
  %29 = getelementptr inbounds nuw i8, ptr %28, i32 1
  store ptr %29, ptr %6, align 8, !tbaa !11
  br label %17, !llvm.loop !112

30:                                               ; preds = %17
  %31 = load ptr, ptr %4, align 8, !tbaa !11
  call void @llvm.lifetime.end.p0(i64 8, ptr %6) #8
  call void @llvm.lifetime.end.p0(i64 8, ptr %5) #8
  ret ptr %31
}