; Function Attrs: mustprogress nofree norecurse nosync nounwind memory(argmem: readwrite) uwtable
define noundef ptr @uprv_decNumberGetBCD_77(ptr noundef readonly captures(none) %0, ptr noundef returned writeonly %1) local_unnamed_addr #0 {
  %3 = load i32, ptr %0, align 4, !tbaa !9
  %4 = sext i32 %3 to i64
  %5 = getelementptr inbounds i8, ptr %1, i64 %4
  %.01012 = getelementptr inbounds i8, ptr %5, i64 -1
  %.not13 = icmp ult ptr %.01012, %1
  br i1 %.not13, label %._crit_edge, label %.lr.ph.preheader

.lr.ph.preheader:                                 ; preds = %2
  %6 = getelementptr inbounds nuw i8, ptr %0, i64 9
  br label %.lr.ph

.lr.ph:                                           ; preds = %.lr.ph.preheader, %.lr.ph
  %.01015 = phi ptr [ %.010, %.lr.ph ], [ %.01012, %.lr.ph.preheader ]
  %.014 = phi ptr [ %8, %.lr.ph ], [ %6, %.lr.ph.preheader ]
  %7 = load i8, ptr %.014, align 1, !tbaa !10
  store i8 %7, ptr %.01015, align 1, !tbaa !10
  %8 = getelementptr inbounds nuw i8, ptr %.014, i64 1
  %.010 = getelementptr inbounds i8, ptr %.01015, i64 -1
  %.not = icmp ult ptr %.010, %1
  br i1 %.not, label %._crit_edge, label %.lr.ph, !llvm.loop !95

._crit_edge:                                      ; preds = %.lr.ph, %2
  ret ptr %1
}